target datalayout = "e-m:e-p270:32:32-p271:32:32-p272:64:64-i64:64-i128:128-f80:128-n8:16:32:64-S128"
target triple = "x86_64-unknown-linux-gnu"

%"class.boost::detail::shared_count" = type { ptr }
%"class.QuantLib::AmericanPathPricer" = type { %"class.QuantLib::EarlyExercisePathPricer", double, %"class.boost::shared_ptr.16", %"class.std::vector.29" }
%"class.QuantLib::EarlyExercisePathPricer" = type { ptr }
%"class.boost::shared_ptr.16" = type { ptr, %"class.boost::detail::shared_count" }
%"class.std::vector.29" = type { %"struct.std::_Vector_base.30" }
%"struct.std::_Vector_base.30" = type { %"struct.std::_Vector_base<std::function<double (double)>, std::allocator<std::function<double (double)>>>::_Vector_impl" }
%"struct.std::_Vector_base<std::function<double (double)>, std::allocator<std::function<double (double)>>>::_Vector_impl" = type { %"struct.std::_Vector_base<std::function<double (double)>, std::allocator<std::function<double (double)>>>::_Vector_impl_data" }
%"struct.std::_Vector_base<std::function<double (double)>, std::allocator<std::function<double (double)>>>::_Vector_impl_data" = type { ptr, ptr, ptr }

@.str.15 = private unnamed_addr constant [8 x i8] c"px != 0\00", align 1
@.str.16 = private unnamed_addr constant [102 x i8] c"generated/home/dtcxzyw/WorkSpace/SDK/vcpkg/installed/x64-linux/include/boost/smart_ptr/shared_ptr.hpp\00", align 1
@__PRETTY_FUNCTION__._ZNK5boost10shared_ptrIN8QuantLib6PayoffEEdeEv = private unnamed_addr constant [126 x i8] c"typename boost::detail::sp_dereference<T>::type boost::shared_ptr<QuantLib::Payoff>::operator*() const [T = QuantLib::Payoff]\00", align 1

; Function Attrs: mustprogress uwtable
define linkonce_odr noundef nonnull align 8 dereferenceable(8) ptr @_ZNK5boost10shared_ptrIN8QuantLib6PayoffEEdeEv(ptr noundef nonnull align 8 dereferenceable(16) %this) #4 comdat align 2 {
entry:
  %this.addr = alloca ptr, align 8
  store ptr %this, ptr %this.addr, align 8, !tbaa !3
  %this1 = load ptr, ptr %this.addr, align 8
  %px = getelementptr inbounds nuw %"class.boost::shared_ptr.16", ptr %this1, i32 0, i32 0
  %0 = load ptr, ptr %px, align 8, !tbaa !25
  %cmp = icmp ne ptr %0, null
  %lnot = xor i1 %cmp, true
  %lnot2 = xor i1 %lnot, true
  %conv = zext i1 %lnot2 to i64
  %expval = call i64 @llvm.expect.i64(i64 %conv, i64 1)
  %tobool = icmp ne i64 %expval, 0
  br i1 %tobool, label %cond.true, label %cond.false

cond.true:                                        ; preds = %entry
  br label %cond.end

cond.false:                                       ; preds = %entry
  call void @_ZN5boost16assertion_failedEPKcS1_S1_l(ptr noundef @.str.15, ptr noundef @__PRETTY_FUNCTION__._ZNK5boost10shared_ptrIN8QuantLib6PayoffEEdeEv, ptr noundef @.str.16, i64 noundef 778)
  br label %cond.end

cond.end:                                         ; preds = %cond.false, %cond.true
  %px3 = getelementptr inbounds nuw %"class.boost::shared_ptr.16", ptr %this1, i32 0, i32 0
  %1 = load ptr, ptr %px3, align 8, !tbaa !25
  ret ptr %1
}

; Function Attrs: mustprogress uwtable
define noundef double @_ZNK8QuantLib18AmericanPathPricer6payoffEd(ptr noundef nonnull align 8 dereferenceable(56) %this, double noundef %state) #4 align 2 {
entry:
  %this.addr = alloca ptr, align 8
  %state.addr = alloca double, align 8
  store ptr %this, ptr %this.addr, align 8, !tbaa !3
  store double %state, ptr %state.addr, align 8, !tbaa !38
  %this1 = load ptr, ptr %this.addr, align 8
  %payoff_ = getelementptr inbounds nuw %"class.QuantLib::AmericanPathPricer", ptr %this1, i32 0, i32 2
  %call = call noundef nonnull align 8 dereferenceable(8) ptr @_ZNK5boost10shared_ptrIN8QuantLib6PayoffEEdeEv(ptr noundef nonnull align 8 dereferenceable(16) %payoff_)
  %0 = load double, ptr %state.addr, align 8, !tbaa !38
  %scalingValue_ = getelementptr inbounds nuw %"class.QuantLib::AmericanPathPricer", ptr %this1, i32 0, i32 1
  %1 = load double, ptr %scalingValue_, align 8, !tbaa !13
  %div = fdiv double %0, %1
  %vtable = load ptr, ptr %call, align 8, !tbaa !7
  %vfn = getelementptr inbounds ptr, ptr %vtable, i64 4
  %2 = load ptr, ptr %vfn, align 8
  %call2 = call noundef double %2(ptr noundef nonnull align 8 dereferenceable(8) %call, double noundef %div)
  ret double %call2
}

; Function Attrs: mustprogress uwtable
define noundef double @_ZNK8QuantLib18AmericanPathPricerclERKNS_4PathEm(ptr noundef nonnull align 8 dereferenceable(56) %this, ptr noundef nonnull align 8 dereferenceable(88) %path, i64 noundef %t) unnamed_addr #4 align 2 {
entry:
  %this.addr = alloca ptr, align 8
  %path.addr = alloca ptr, align 8
  %t.addr = alloca i64, align 8
  store ptr %this, ptr %this.addr, align 8, !tbaa !3
  store ptr %path, ptr %path.addr, align 8, !tbaa !3
  store i64 %t, ptr %t.addr, align 8, !tbaa !9
  %this1 = load ptr, ptr %this.addr, align 8
  %0 = load ptr, ptr %path.addr, align 8, !tbaa !3
  %1 = load i64, ptr %t.addr, align 8, !tbaa !9
  %vtable = load ptr, ptr %this1, align 8, !tbaa !7
  %vfn = getelementptr inbounds ptr, ptr %vtable, i64 3
  %2 = load ptr, ptr %vfn, align 8
  %call = call noundef double %2(ptr noundef nonnull align 8 dereferenceable(56) %this1, ptr noundef nonnull align 8 dereferenceable(88) %0, i64 noundef %1)
  %call2 = call noundef double @_ZNK8QuantLib18AmericanPathPricer6payoffEd(ptr noundef nonnull align 8 dereferenceable(56) %this1, double noundef %call)
  ret double %call2
}