; Function Attrs: mustprogress uwtable
define noundef double @_ZNK8QuantLib18AmericanPathPricerclERKNS_4PathEm(ptr noundef nonnull align 8 dereferenceable(56) %this, ptr noundef nonnull align 8 dereferenceable(88) %path, i64 noundef %t) unnamed_addr #4 align 2 {
entry:
  %vtable = load ptr, ptr %this, align 8, !tbaa !14
  %vfn = getelementptr inbounds i8, ptr %vtable, i64 24
  %0 = load ptr, ptr %vfn, align 8
  %call = tail call noundef double %0(ptr noundef nonnull align 8 dereferenceable(56) %this, ptr noundef nonnull align 8 dereferenceable(88) %path, i64 noundef %t)
  %payoff_.i = getelementptr inbounds nuw i8, ptr %this, i64 16
  %1 = load ptr, ptr %payoff_.i, align 8, !tbaa !27
  %cmp.not.i.i = icmp eq ptr %1, null
  br i1 %cmp.not.i.i, label %cond.false.i.i, label %_ZNK8QuantLib18AmericanPathPricer6payoffEd.exit, !prof !54

cond.false.i.i:                                   ; preds = %entry
  tail call void @_ZN5boost16assertion_failedEPKcS1_S1_l(ptr noundef nonnull @.str.15, ptr noundef nonnull @__PRETTY_FUNCTION__._ZNK5boost10shared_ptrIN8QuantLib6PayoffEEdeEv, ptr noundef nonnull @.str.16, i64 noundef 778)
  %.pre.i.i = load ptr, ptr %payoff_.i, align 8, !tbaa !27
  br label %_ZNK8QuantLib18AmericanPathPricer6payoffEd.exit

_ZNK8QuantLib18AmericanPathPricer6payoffEd.exit:  ; preds = %entry, %cond.false.i.i
  %2 = phi ptr [ %1, %entry ], [ %.pre.i.i, %cond.false.i.i ]
  %scalingValue_.i = getelementptr inbounds nuw i8, ptr %this, i64 8
  %3 = load double, ptr %scalingValue_.i, align 8, !tbaa !18
  %div.i = fdiv double %call, %3
  %vtable.i = load ptr, ptr %2, align 8, !tbaa !14
  %vfn.i = getelementptr inbounds i8, ptr %vtable.i, i64 32
  %4 = load ptr, ptr %vfn.i, align 8
  %call2.i = tail call noundef double %4(ptr noundef nonnull align 8 dereferenceable(8) %2, double noundef %div.i)
  ret double %call2.i
}